; Function Attrs: nounwind uwtable
define i32 @X509_check_ip(ptr noundef %0, ptr noundef %1, i64 noundef %2, i32 noundef %3) local_unnamed_addr #0 {
  %5 = icmp eq ptr %1, null
  br i1 %5, label %8, label %6

6:                                                ; preds = %4
  %7 = tail call fastcc i32 @do_x509_check(ptr noundef %0, ptr noundef %1, i64 noundef %2, i32 noundef %3, i32 noundef 7, ptr noundef null)
  br label %8

8:                                                ; preds = %4, %6
  %.0 = phi i32 [ %7, %6 ], [ -2, %4 ]
  ret i32 %.0
}